target datalayout = "e-m:e-p270:32:32-p271:32:32-p272:64:64-i64:64-i128:128-f80:128-n8:16:32:64-S128"
target triple = "x86_64-pc-linux-gnu"

%struct.saucy = type { i32, ptr, ptr, ptr, ptr, %struct.coloring, %struct.coloring, ptr, ptr, ptr, ptr, ptr, i32, i32, ptr, i32, ptr, ptr, ptr, ptr, ptr, ptr, ptr, i32, i32, ptr, i32, ptr, i32, i32, ptr, ptr, ptr, ptr, ptr, ptr, ptr, ptr, ptr, ptr, i32, ptr, ptr, ptr, i32, ptr, i32, ptr, ptr, ptr, ptr, i32, ptr, ptr, i32, ptr, ptr, ptr, ptr, ptr, ptr, ptr, ptr, ptr, ptr, ptr, ptr, ptr, ptr, ptr, ptr, ptr, ptr, ptr, ptr, ptr, ptr, double, i32, i32, i32, ptr, ptr, ptr, ptr }
%struct.coloring = type { ptr, ptr, ptr, ptr }

; Function Attrs: nounwind uwtable
define internal void @fix_fronts(ptr noundef %0, i32 noundef %1, i32 noundef %2) #0 {
  %4 = alloca ptr, align 8
  %5 = alloca i32, align 4
  %6 = alloca i32, align 4
  %7 = alloca i32, align 4
  %8 = alloca i32, align 4
  store ptr %0, ptr %4, align 8
  store i32 %1, ptr %5, align 4
  store i32 %2, ptr %6, align 4
  %9 = load i32, ptr %5, align 4
  %10 = load ptr, ptr %4, align 8
  %11 = getelementptr inbounds %struct.coloring, ptr %10, i32 0, i32 3
  %12 = load ptr, ptr %11, align 8
  %13 = load i32, ptr %5, align 4
  %14 = sext i32 %13 to i64
  %15 = getelementptr inbounds i32, ptr %12, i64 %14
  %16 = load i32, ptr %15, align 4
  %17 = add nsw i32 %9, %16
  store i32 %17, ptr %8, align 4
  %18 = load i32, ptr %6, align 4
  store i32 %18, ptr %7, align 4
  br label %19

19:                                               ; preds = %37, %3
  %20 = load i32, ptr %7, align 4
  %21 = load i32, ptr %8, align 4
  %22 = icmp sle i32 %20, %21
  br i1 %22, label %23, label %40

23:                                               ; preds = %19
  %24 = load i32, ptr %5, align 4
  %25 = load ptr, ptr %4, align 8
  %26 = getelementptr inbounds %struct.coloring, ptr %25, i32 0, i32 2
  %27 = load ptr, ptr %26, align 8
  %28 = load ptr, ptr %4, align 8
  %29 = getelementptr inbounds %struct.coloring, ptr %28, i32 0, i32 0
  %30 = load ptr, ptr %29, align 8
  %31 = load i32, ptr %7, align 4
  %32 = sext i32 %31 to i64
  %33 = getelementptr inbounds i32, ptr %30, i64 %32
  %34 = load i32, ptr %33, align 4
  %35 = sext i32 %34 to i64
  %36 = getelementptr inbounds i32, ptr %27, i64 %35
  store i32 %24, ptr %36, align 4
  br label %37

37:                                               ; preds = %23
  %38 = load i32, ptr %7, align 4
  %39 = add nsw i32 %38, 1
  store i32 %39, ptr %7, align 4
  br label %19, !llvm.loop !26

40:                                               ; preds = %19
  ret void
}

; Function Attrs: nounwind uwtable
define internal void @add_induce(ptr noundef %0, ptr noundef %1, i32 noundef %2) #0 {
  %4 = alloca ptr, align 8
  %5 = alloca ptr, align 8
  %6 = alloca i32, align 4
  store ptr %0, ptr %4, align 8
  store ptr %1, ptr %5, align 8
  store i32 %2, ptr %6, align 4
  %7 = load ptr, ptr %5, align 8
  %8 = getelementptr inbounds %struct.coloring, ptr %7, i32 0, i32 3
  %9 = load ptr, ptr %8, align 8
  %10 = load i32, ptr %6, align 4
  %11 = sext i32 %10 to i64
  %12 = getelementptr inbounds i32, ptr %9, i64 %11
  %13 = load i32, ptr %12, align 4
  %14 = icmp ne i32 %13, 0
  br i1 %14, label %26, label %15

15:                                               ; preds = %3
  %16 = load i32, ptr %6, align 4
  %17 = load ptr, ptr %4, align 8
  %18 = getelementptr inbounds %struct.saucy, ptr %17, i32 0, i32 11
  %19 = load ptr, ptr %18, align 8
  %20 = load ptr, ptr %4, align 8
  %21 = getelementptr inbounds %struct.saucy, ptr %20, i32 0, i32 13
  %22 = load i32, ptr %21, align 4
  %23 = add nsw i32 %22, 1
  store i32 %23, ptr %21, align 4
  %24 = sext i32 %22 to i64
  %25 = getelementptr inbounds i32, ptr %19, i64 %24
  store i32 %16, ptr %25, align 4
  br label %37

26:                                               ; preds = %3
  %27 = load i32, ptr %6, align 4
  %28 = load ptr, ptr %4, align 8
  %29 = getelementptr inbounds %struct.saucy, ptr %28, i32 0, i32 10
  %30 = load ptr, ptr %29, align 8
  %31 = load ptr, ptr %4, align 8
  %32 = getelementptr inbounds %struct.saucy, ptr %31, i32 0, i32 12
  %33 = load i32, ptr %32, align 8
  %34 = add nsw i32 %33, 1
  store i32 %34, ptr %32, align 8
  %35 = sext i32 %33 to i64
  %36 = getelementptr inbounds i32, ptr %30, i64 %35
  store i32 %27, ptr %36, align 4
  br label %37

37:                                               ; preds = %26, %15
  %38 = load ptr, ptr %4, align 8
  %39 = getelementptr inbounds %struct.saucy, ptr %38, i32 0, i32 9
  %40 = load ptr, ptr %39, align 8
  %41 = load i32, ptr %6, align 4
  %42 = sext i32 %41 to i64
  %43 = getelementptr inbounds i8, ptr %40, i64 %42
  store i8 1, ptr %43, align 1
  ret void
}

; Function Attrs: nounwind uwtable
define internal void @split_color(ptr noundef %0, i32 noundef %1, i32 noundef %2) #0 {
  %4 = alloca ptr, align 8
  %5 = alloca i32, align 4
  %6 = alloca i32, align 4
  %7 = alloca i32, align 4
  %8 = alloca i32, align 4
  store ptr %0, ptr %4, align 8
  store i32 %1, ptr %5, align 4
  store i32 %2, ptr %6, align 4
  %9 = load i32, ptr %6, align 4
  %10 = sub nsw i32 %9, 1
  store i32 %10, ptr %8, align 4
  %11 = load i32, ptr %5, align 4
  %12 = load ptr, ptr %4, align 8
  %13 = getelementptr inbounds %struct.coloring, ptr %12, i32 0, i32 3
  %14 = load ptr, ptr %13, align 8
  %15 = load i32, ptr %5, align 4
  %16 = sext i32 %15 to i64
  %17 = getelementptr inbounds i32, ptr %14, i64 %16
  %18 = load i32, ptr %17, align 4
  %19 = add nsw i32 %11, %18
  store i32 %19, ptr %7, align 4
  %20 = load i32, ptr %8, align 4
  %21 = load i32, ptr %5, align 4
  %22 = sub nsw i32 %20, %21
  %23 = load ptr, ptr %4, align 8
  %24 = getelementptr inbounds %struct.coloring, ptr %23, i32 0, i32 3
  %25 = load ptr, ptr %24, align 8
  %26 = load i32, ptr %5, align 4
  %27 = sext i32 %26 to i64
  %28 = getelementptr inbounds i32, ptr %25, i64 %27
  store i32 %22, ptr %28, align 4
  %29 = load i32, ptr %7, align 4
  %30 = load i32, ptr %6, align 4
  %31 = sub nsw i32 %29, %30
  %32 = load ptr, ptr %4, align 8
  %33 = getelementptr inbounds %struct.coloring, ptr %32, i32 0, i32 3
  %34 = load ptr, ptr %33, align 8
  %35 = load i32, ptr %6, align 4
  %36 = sext i32 %35 to i64
  %37 = getelementptr inbounds i32, ptr %34, i64 %36
  store i32 %31, ptr %37, align 4
  %38 = load ptr, ptr %4, align 8
  %39 = load i32, ptr %6, align 4
  %40 = load i32, ptr %6, align 4
  call void @fix_fronts(ptr noundef %38, i32 noundef %39, i32 noundef %40)
  ret void
}

; Function Attrs: nounwind uwtable
define internal void @split_common(ptr noundef %0, ptr noundef %1, i32 noundef %2, i32 noundef %3) #0 {
  %5 = alloca ptr, align 8
  %6 = alloca ptr, align 8
  %7 = alloca i32, align 4
  %8 = alloca i32, align 4
  store ptr %0, ptr %5, align 8
  store ptr %1, ptr %6, align 8
  store i32 %2, ptr %7, align 4
  store i32 %3, ptr %8, align 4
  %9 = load ptr, ptr %6, align 8
  %10 = load i32, ptr %7, align 4
  %11 = load i32, ptr %8, align 4
  call void @split_color(ptr noundef %9, i32 noundef %10, i32 noundef %11)
  %12 = load ptr, ptr %5, align 8
  %13 = getelementptr inbounds %struct.saucy, ptr %12, i32 0, i32 9
  %14 = load ptr, ptr %13, align 8
  %15 = load i32, ptr %7, align 4
  %16 = sext i32 %15 to i64
  %17 = getelementptr inbounds i8, ptr %14, i64 %16
  %18 = load i8, ptr %17, align 1
  %19 = sext i8 %18 to i32
  %20 = icmp ne i32 %19, 0
  br i1 %20, label %37, label %21

21:                                               ; preds = %4
  %22 = load ptr, ptr %6, align 8
  %23 = getelementptr inbounds %struct.coloring, ptr %22, i32 0, i32 3
  %24 = load ptr, ptr %23, align 8
  %25 = load i32, ptr %8, align 4
  %26 = sext i32 %25 to i64
  %27 = getelementptr inbounds i32, ptr %24, i64 %26
  %28 = load i32, ptr %27, align 4
  %29 = load ptr, ptr %6, align 8
  %30 = getelementptr inbounds %struct.coloring, ptr %29, i32 0, i32 3
  %31 = load ptr, ptr %30, align 8
  %32 = load i32, ptr %7, align 4
  %33 = sext i32 %32 to i64
  %34 = getelementptr inbounds i32, ptr %31, i64 %33
  %35 = load i32, ptr %34, align 4
  %36 = icmp slt i32 %28, %35
  br i1 %36, label %37, label %41

37:                                               ; preds = %21, %4
  %38 = load ptr, ptr %5, align 8
  %39 = load ptr, ptr %6, align 8
  %40 = load i32, ptr %8, align 4
  call void @add_induce(ptr noundef %38, ptr noundef %39, i32 noundef %40)
  br label %45

41:                                               ; preds = %21
  %42 = load ptr, ptr %5, align 8
  %43 = load ptr, ptr %6, align 8
  %44 = load i32, ptr %7, align 4
  call void @add_induce(ptr noundef %42, ptr noundef %43, i32 noundef %44)
  br label %45

45:                                               ; preds = %41, %37
  ret void
}

; Function Attrs: nounwind uwtable
define internal i32 @split_left(ptr noundef %0, ptr noundef %1, i32 noundef %2, i32 noundef %3) #0 {
  %5 = alloca ptr, align 8
  %6 = alloca ptr, align 8
  %7 = alloca i32, align 4
  %8 = alloca i32, align 4
  store ptr %0, ptr %5, align 8
  store ptr %1, ptr %6, align 8
  store i32 %2, ptr %7, align 4
  store i32 %3, ptr %8, align 4
  %9 = load i32, ptr %8, align 4
  %10 = load ptr, ptr %5, align 8
  %11 = getelementptr inbounds %struct.saucy, ptr %10, i32 0, i32 37
  %12 = load ptr, ptr %11, align 8
  %13 = load ptr, ptr %5, align 8
  %14 = getelementptr inbounds %struct.saucy, ptr %13, i32 0, i32 40
  %15 = load i32, ptr %14, align 8
  %16 = sext i32 %15 to i64
  %17 = getelementptr inbounds i32, ptr %12, i64 %16
  store i32 %9, ptr %17, align 4
  %18 = load i32, ptr %7, align 4
  %19 = load ptr, ptr %5, align 8
  %20 = getelementptr inbounds %struct.saucy, ptr %19, i32 0, i32 38
  %21 = load ptr, ptr %20, align 8
  %22 = load ptr, ptr %5, align 8
  %23 = getelementptr inbounds %struct.saucy, ptr %22, i32 0, i32 40
  %24 = load i32, ptr %23, align 8
  %25 = sext i32 %24 to i64
  %26 = getelementptr inbounds i32, ptr %21, i64 %25
  store i32 %18, ptr %26, align 4
  %27 = load ptr, ptr %5, align 8
  %28 = getelementptr inbounds %struct.saucy, ptr %27, i32 0, i32 40
  %29 = load i32, ptr %28, align 8
  %30 = add nsw i32 %29, 1
  store i32 %30, ptr %28, align 8
  %31 = load ptr, ptr %5, align 8
  %32 = load ptr, ptr %6, align 8
  %33 = load i32, ptr %7, align 4
  %34 = load i32, ptr %8, align 4
  call void @split_common(ptr noundef %31, ptr noundef %32, i32 noundef %33, i32 noundef %34)
  ret i32 1
}