; Function Attrs: nofree norecurse nosync nounwind memory(readwrite, inaccessiblemem: none) uwtable
define internal noundef i32 @split_left(ptr noundef captures(none) %0, ptr noundef readonly captures(none) %1, i32 noundef %2, i32 noundef %3) #2 {
  %5 = getelementptr inbounds nuw i8, ptr %0, i64 320
  %6 = load ptr, ptr %5, align 8
  %7 = getelementptr inbounds nuw i8, ptr %0, i64 344
  %8 = load i32, ptr %7, align 8
  %9 = sext i32 %8 to i64
  %10 = getelementptr inbounds i32, ptr %6, i64 %9
  store i32 %3, ptr %10, align 4
  %11 = getelementptr inbounds nuw i8, ptr %0, i64 328
  %12 = load ptr, ptr %11, align 8
  %13 = load i32, ptr %7, align 8
  %14 = sext i32 %13 to i64
  %15 = getelementptr inbounds i32, ptr %12, i64 %14
  store i32 %2, ptr %15, align 4
  %16 = load i32, ptr %7, align 8
  %17 = add nsw i32 %16, 1
  store i32 %17, ptr %7, align 8
  %18 = getelementptr inbounds nuw i8, ptr %1, i64 24
  %19 = load ptr, ptr %18, align 8
  %20 = sext i32 %2 to i64
  %21 = getelementptr inbounds i32, ptr %19, i64 %20
  %22 = load i32, ptr %21, align 4
  %23 = xor i32 %2, -1
  %24 = add i32 %3, %23
  store i32 %24, ptr %21, align 4
  %25 = sub i32 %2, %3
  %26 = add i32 %25, %22
  %27 = load ptr, ptr %18, align 8
  %28 = sext i32 %3 to i64
  %29 = getelementptr inbounds i32, ptr %27, i64 %28
  store i32 %26, ptr %29, align 4
  %30 = load ptr, ptr %18, align 8
  %31 = getelementptr inbounds i32, ptr %30, i64 %28
  %32 = load i32, ptr %31, align 4
  %33 = add i32 %32, %3
  %.not10.i.i.i = icmp sgt i32 %3, %33
  br i1 %.not10.i.i.i, label %split_color.exit.i, label %.lr.ph.i.i.i

.lr.ph.i.i.i:                                     ; preds = %4
  %34 = getelementptr inbounds nuw i8, ptr %1, i64 16
  %35 = add i32 %33, 1
  br label %36

36:                                               ; preds = %36, %.lr.ph.i.i.i
  %indvars.iv.i.i.i = phi i64 [ %28, %.lr.ph.i.i.i ], [ %indvars.iv.next.i.i.i, %36 ]
  %37 = load ptr, ptr %34, align 8
  %38 = load ptr, ptr %1, align 8
  %39 = getelementptr inbounds i32, ptr %38, i64 %indvars.iv.i.i.i
  %40 = load i32, ptr %39, align 4
  %41 = sext i32 %40 to i64
  %42 = getelementptr inbounds i32, ptr %37, i64 %41
  store i32 %3, ptr %42, align 4
  %indvars.iv.next.i.i.i = add nsw i64 %indvars.iv.i.i.i, 1
  %lftr.wideiv.i.i.i = trunc i64 %indvars.iv.next.i.i.i to i32
  %exitcond.not.i.i.i = icmp eq i32 %35, %lftr.wideiv.i.i.i
  br i1 %exitcond.not.i.i.i, label %split_color.exit.loopexit.i, label %36, !llvm.loop !21

split_color.exit.loopexit.i:                      ; preds = %36
  %.val14.pre.pre.i = load ptr, ptr %18, align 8
  %.phi.trans.insert = getelementptr inbounds i32, ptr %.val14.pre.pre.i, i64 %28
  %.pre = load i32, ptr %.phi.trans.insert, align 4
  br label %split_color.exit.i

split_color.exit.i:                               ; preds = %split_color.exit.loopexit.i, %4
  %43 = phi i32 [ %.pre, %split_color.exit.loopexit.i ], [ %32, %4 ]
  %.val14.pre.i = phi ptr [ %.val14.pre.pre.i, %split_color.exit.loopexit.i ], [ %30, %4 ]
  %44 = getelementptr inbounds nuw i8, ptr %0, i64 120
  %45 = load ptr, ptr %44, align 8
  %46 = getelementptr inbounds i8, ptr %45, i64 %20
  %47 = load i8, ptr %46, align 1
  %.not.i = icmp eq i8 %47, 0
  br i1 %.not.i, label %48, label %split_color.exit._crit_edge.i

48:                                               ; preds = %split_color.exit.i
  %49 = getelementptr inbounds i32, ptr %.val14.pre.i, i64 %20
  %50 = load i32, ptr %49, align 4
  %51 = icmp slt i32 %43, %50
  br i1 %51, label %split_color.exit._crit_edge.i, label %64

split_color.exit._crit_edge.i:                    ; preds = %48, %split_color.exit.i
  %.not.i.i = icmp eq i32 %43, 0
  br i1 %.not.i.i, label %52, label %58

52:                                               ; preds = %split_color.exit._crit_edge.i
  %53 = getelementptr inbounds nuw i8, ptr %0, i64 136
  %54 = load ptr, ptr %53, align 8
  %55 = getelementptr inbounds nuw i8, ptr %0, i64 148
  %56 = load i32, ptr %55, align 4
  %57 = add nsw i32 %56, 1
  store i32 %57, ptr %55, align 4
  br label %split_common.exit

58:                                               ; preds = %split_color.exit._crit_edge.i
  %59 = getelementptr inbounds nuw i8, ptr %0, i64 128
  %60 = load ptr, ptr %59, align 8
  %61 = getelementptr inbounds nuw i8, ptr %0, i64 144
  %62 = load i32, ptr %61, align 8
  %63 = add nsw i32 %62, 1
  store i32 %63, ptr %61, align 8
  br label %split_common.exit

64:                                               ; preds = %48
  %.not.i15.i = icmp eq i32 %50, 0
  br i1 %.not.i15.i, label %65, label %71

65:                                               ; preds = %64
  %66 = getelementptr inbounds nuw i8, ptr %0, i64 136
  %67 = load ptr, ptr %66, align 8
  %68 = getelementptr inbounds nuw i8, ptr %0, i64 148
  %69 = load i32, ptr %68, align 4
  %70 = add nsw i32 %69, 1
  store i32 %70, ptr %68, align 4
  br label %split_common.exit

71:                                               ; preds = %64
  %72 = getelementptr inbounds nuw i8, ptr %0, i64 128
  %73 = load ptr, ptr %72, align 8
  %74 = getelementptr inbounds nuw i8, ptr %0, i64 144
  %75 = load i32, ptr %74, align 8
  %76 = add nsw i32 %75, 1
  store i32 %76, ptr %74, align 8
  br label %split_common.exit

split_common.exit:                                ; preds = %52, %58, %65, %71
  %.sink.i16.sink.i = phi i32 [ %62, %58 ], [ %56, %52 ], [ %75, %71 ], [ %69, %65 ]
  %.sink1.i17.sink.i = phi ptr [ %60, %58 ], [ %54, %52 ], [ %73, %71 ], [ %67, %65 ]
  %.sink.i = phi i32 [ %3, %58 ], [ %3, %52 ], [ %2, %71 ], [ %2, %65 ]
  %.sink21.i = phi i64 [ %28, %58 ], [ %28, %52 ], [ %20, %71 ], [ %20, %65 ]
  %77 = sext i32 %.sink.i16.sink.i to i64
  %78 = getelementptr inbounds i32, ptr %.sink1.i17.sink.i, i64 %77
  store i32 %.sink.i, ptr %78, align 4
  %79 = load ptr, ptr %44, align 8
  %80 = getelementptr inbounds i8, ptr %79, i64 %.sink21.i
  store i8 1, ptr %80, align 1
  ret i32 1
}